target datalayout = "e-m:e-p270:32:32-p271:32:32-p272:64:64-i64:64-i128:128-f80:128-n8:16:32:64-S128"
target triple = "x86_64-pc-linux-gnu"

%struct._packet_info = type { ptr, ptr, i32, i32, %struct.nstime_t, %struct.nstime_t, %struct.nstime_t, i8, ptr, ptr, ptr, ptr, %struct._address, %struct._address, %struct._address, %struct._address, %struct._address, %struct._address, i32, ptr, i8, [3 x i8], %struct.anon, i32, i32, i32, i32, ptr, i8, ptr, ptr, i16, i16, i32, i32, i16, i32, i32, ptr, ptr, ptr, i8, i8, i16, i16, i16, i32, i16, i16, ptr, ptr, ptr, ptr, ptr, i32, i32 }
%struct.nstime_t = type { i64, i32 }
%struct._address = type { i32, i32, ptr, ptr }
%struct.anon = type { i8, [3 x i8] }

; Function Attrs: inlinehint nounwind null_pointer_is_valid sspstrong uwtable
define internal i32 @pntoh32(ptr noundef %0) #3 {
  %2 = alloca ptr, align 8
  store ptr %0, ptr %2, align 8
  %3 = load ptr, ptr %2, align 8
  %4 = getelementptr i8, ptr %3, i64 0
  %5 = load i8, ptr %4, align 1
  %6 = zext i8 %5 to i32
  %7 = shl i32 %6, 24
  %8 = load ptr, ptr %2, align 8
  %9 = getelementptr i8, ptr %8, i64 1
  %10 = load i8, ptr %9, align 1
  %11 = zext i8 %10 to i32
  %12 = shl i32 %11, 16
  %13 = or i32 %7, %12
  %14 = load ptr, ptr %2, align 8
  %15 = getelementptr i8, ptr %14, i64 2
  %16 = load i8, ptr %15, align 1
  %17 = zext i8 %16 to i32
  %18 = shl i32 %17, 8
  %19 = or i32 %13, %18
  %20 = load ptr, ptr %2, align 8
  %21 = getelementptr i8, ptr %20, i64 3
  %22 = load i8, ptr %21, align 1
  %23 = zext i8 %22 to i32
  %24 = shl i32 %23, 0
  %25 = or i32 %19, %24
  ret i32 %25
}

; Function Attrs: null_pointer_is_valid sspstrong uwtable
define internal zeroext i1 @dissect_lsd_heur(ptr noundef %0, ptr noundef %1, ptr noundef %2, ptr noundef %3) #0 {
  %5 = alloca i1, align 1
  %6 = alloca ptr, align 8
  %7 = alloca ptr, align 8
  %8 = alloca ptr, align 8
  %9 = alloca ptr, align 8
  store ptr %0, ptr %6, align 8
  store ptr %1, ptr %7, align 8
  store ptr %2, ptr %8, align 8
  store ptr %3, ptr %9, align 8
  %10 = load ptr, ptr %7, align 8
  %11 = getelementptr inbounds nuw %struct._packet_info, ptr %10, i32 0, i32 17
  %12 = getelementptr inbounds nuw %struct._address, ptr %11, i32 0, i32 0
  %13 = load i32, ptr %12, align 8
  %14 = icmp eq i32 %13, 2
  br i1 %14, label %15, label %34

15:                                               ; preds = %4
  %16 = load ptr, ptr %7, align 8
  %17 = getelementptr inbounds nuw %struct._packet_info, ptr %16, i32 0, i32 17
  %18 = getelementptr inbounds nuw %struct._address, ptr %17, i32 0, i32 2
  %19 = load ptr, ptr %18, align 8
  %20 = call i32 @pntoh32(ptr noundef %19)
  %21 = icmp eq i32 %20, -272590705
  br i1 %21, label %22, label %34

22:                                               ; preds = %15
  %23 = load ptr, ptr %7, align 8
  %24 = getelementptr inbounds nuw %struct._packet_info, ptr %23, i32 0, i32 25
  %25 = load i32, ptr %24, align 8
  %26 = icmp eq i32 %25, 6771
  br i1 %26, label %27, label %34

27:                                               ; preds = %22
  %28 = load ptr, ptr %6, align 8
  %29 = load ptr, ptr %7, align 8
  %30 = load ptr, ptr %8, align 8
  %31 = load ptr, ptr %9, align 8
  %32 = call i32 @dissect_lsd(ptr noundef %28, ptr noundef %29, ptr noundef %30, ptr noundef %31)
  %33 = icmp ne i32 %32, 0
  store i1 %33, ptr %5, align 1
  br label %53

34:                                               ; preds = %22, %15, %4
  %35 = load ptr, ptr %7, align 8
  %36 = getelementptr inbounds nuw %struct._packet_info, ptr %35, i32 0, i32 17
  %37 = getelementptr inbounds nuw %struct._address, ptr %36, i32 0, i32 0
  %38 = load i32, ptr %37, align 8
  %39 = icmp eq i32 %38, 3
  br i1 %39, label %40, label %52

40:                                               ; preds = %34
  %41 = load ptr, ptr %7, align 8
  %42 = getelementptr inbounds nuw %struct._packet_info, ptr %41, i32 0, i32 25
  %43 = load i32, ptr %42, align 8
  %44 = icmp eq i32 %43, 6771
  br i1 %44, label %45, label %52

45:                                               ; preds = %40
  %46 = load ptr, ptr %6, align 8
  %47 = load ptr, ptr %7, align 8
  %48 = load ptr, ptr %8, align 8
  %49 = load ptr, ptr %9, align 8
  %50 = call i32 @dissect_lsd(ptr noundef %46, ptr noundef %47, ptr noundef %48, ptr noundef %49)
  %51 = icmp ne i32 %50, 0
  store i1 %51, ptr %5, align 1
  br label %53

52:                                               ; preds = %40, %34
  store i1 false, ptr %5, align 1
  br label %53

53:                                               ; preds = %52, %45, %27
  %54 = load i1, ptr %5, align 1
  ret i1 %54
}