; Function Attrs: null_pointer_is_valid sspstrong uwtable
define internal zeroext i1 @dissect_lsd_heur(ptr noundef %0, ptr noundef %1, ptr noundef %2, ptr readnone captures(none) %3) #0 {
  %5 = getelementptr inbounds nuw i8, ptr %1, i64 232
  %6 = load i32, ptr %5, align 8
  switch i32 %6, label %.thread [
    i32 2, label %7
    i32 3, label %32
  ]

7:                                                ; preds = %4
  %8 = getelementptr inbounds nuw i8, ptr %1, i64 240
  %9 = load ptr, ptr %8, align 8
  %10 = load i8, ptr %9, align 1
  %11 = zext i8 %10 to i32
  %12 = shl nuw i32 %11, 24
  %13 = getelementptr i8, ptr %9, i64 1
  %14 = load i8, ptr %13, align 1
  %15 = zext i8 %14 to i32
  %16 = shl nuw nsw i32 %15, 16
  %17 = or disjoint i32 %16, %12
  %18 = getelementptr i8, ptr %9, i64 2
  %19 = load i8, ptr %18, align 1
  %20 = zext i8 %19 to i32
  %21 = shl nuw nsw i32 %20, 8
  %22 = or disjoint i32 %17, %21
  %23 = getelementptr i8, ptr %9, i64 3
  %24 = load i8, ptr %23, align 1
  %25 = zext i8 %24 to i32
  %26 = or disjoint i32 %22, %25
  %27 = icmp eq i32 %26, -272590705
  br i1 %27, label %28, label %.thread

28:                                               ; preds = %7
  %29 = getelementptr inbounds nuw i8, ptr %1, i64 288
  %30 = load i32, ptr %29, align 8
  %31 = icmp eq i32 %30, 6771
  br i1 %31, label %.thread.sink.split, label %.thread

32:                                               ; preds = %4
  %33 = getelementptr inbounds nuw i8, ptr %1, i64 288
  %34 = load i32, ptr %33, align 8
  %35 = icmp eq i32 %34, 6771
  br i1 %35, label %.thread.sink.split, label %.thread

.thread.sink.split:                               ; preds = %32, %28
  %36 = tail call fastcc i32 @dissect_lsd(ptr noundef %0, ptr noundef %1, ptr noundef %2)
  %37 = icmp ne i32 %36, 0
  br label %.thread

.thread:                                          ; preds = %.thread.sink.split, %4, %7, %28, %32
  %.0 = phi i1 [ false, %32 ], [ false, %28 ], [ false, %7 ], [ false, %4 ], [ %37, %.thread.sink.split ]
  ret i1 %.0
}